; Function Attrs: mustprogress uwtable
define void @_ZN3gmx11QMMMOptions9appendLogERKNSt7__cxx1112basic_stringIcSt11char_traitsIcESaIcEEE(ptr nocapture noundef nonnull readonly align 8 dereferenceable(824) %0, ptr noundef nonnull align 8 dereferenceable(32) %1) local_unnamed_addr #0 align 2 personality ptr @__gxx_personality_v0 {
  %3 = alloca %"class.gmx::LogEntryWriter", align 8
  %4 = getelementptr inbounds i8, ptr %0, i64 456
  %5 = load ptr, ptr %4, align 8
  %.not = icmp eq ptr %5, null
  br i1 %.not, label %18, label %6

6:                                                ; preds = %2
  %7 = getelementptr inbounds i8, ptr %5, i64 32
  %8 = load ptr, ptr %7, align 8
  %9 = icmp eq ptr %8, null
  br i1 %9, label %18, label %10

10:                                               ; preds = %6
  call void @llvm.memset.p0.i64(ptr noundef nonnull align 8 dereferenceable(40) %3, i8 0, i64 40, i1 false)
  call void @_ZNSt7__cxx1112basic_stringIcSt11char_traitsIcESaIcEEC1Ev(ptr noundef nonnull align 8 dereferenceable(32) %3) #23
  %11 = getelementptr inbounds i8, ptr %3, i64 32
  store i8 1, ptr %11, align 8
  %12 = invoke noundef nonnull align 8 dereferenceable(32) ptr @_ZNSt7__cxx1112basic_stringIcSt11char_traitsIcESaIcEE6appendERKS4_(ptr noundef nonnull align 8 dereferenceable(32) %3, ptr noundef nonnull align 8 dereferenceable(32) %1)
          to label %_ZN3gmx14LogEntryWriter10appendTextERKNSt7__cxx1112basic_stringIcSt11char_traitsIcESaIcEEE.exit unwind label %16

_ZN3gmx14LogEntryWriter10appendTextERKNSt7__cxx1112basic_stringIcSt11char_traitsIcESaIcEEE.exit: ; preds = %10
  %13 = load ptr, ptr %8, align 8
  %14 = getelementptr inbounds i8, ptr %13, i64 16
  %15 = load ptr, ptr %14, align 8
  invoke void %15(ptr noundef nonnull align 8 dereferenceable(8) %8, ptr noundef nonnull align 8 dereferenceable(33) %3)
          to label %_ZN3gmx14LogWriteHelperaSERKNS_14LogEntryWriterE.exit unwind label %16

_ZN3gmx14LogWriteHelperaSERKNS_14LogEntryWriterE.exit: ; preds = %_ZN3gmx14LogEntryWriter10appendTextERKNSt7__cxx1112basic_stringIcSt11char_traitsIcESaIcEEE.exit
  call void @_ZNSt7__cxx1112basic_stringIcSt11char_traitsIcESaIcEED1Ev(ptr noundef nonnull align 8 dereferenceable(32) %3) #23
  br label %18

16:                                               ; preds = %_ZN3gmx14LogEntryWriter10appendTextERKNSt7__cxx1112basic_stringIcSt11char_traitsIcESaIcEEE.exit, %10
  %17 = landingpad { ptr, i32 }
          cleanup
  call void @_ZNSt7__cxx1112basic_stringIcSt11char_traitsIcESaIcEED1Ev(ptr noundef nonnull align 8 dereferenceable(32) %3) #23
  resume { ptr, i32 } %17

18:                                               ; preds = %_ZN3gmx14LogWriteHelperaSERKNS_14LogEntryWriterE.exit, %6, %2
  ret void
}